; ModuleID = '29/1135.c'
source_filename = "29/1135.c"
target datalayout = "e-m:e-p270:32:32-p271:32:32-p272:64:64-i64:64-f80:128-n8:16:32:64-S128"
target triple = "x86_64-pc-linux-gnu"

@.str = private unnamed_addr constant [3 x i8] c"%d\00", align 1
@.str.1 = private unnamed_addr constant [2 x i8] c"\0A\00", align 1
@.str.2 = private unnamed_addr constant [6 x i8] c"%.3lf\00", align 1

; Function Attrs: noinline nounwind uwtable
define dso_local i32 @main() #0 {
  %1 = alloca i32, align 4
  %2 = alloca i32, align 4
  %3 = alloca i32, align 4
  %4 = alloca i32, align 4
  %5 = alloca double, align 8
  %6 = alloca i32, align 4
  %7 = alloca i32, align 4
  %8 = alloca i32, align 4
  %9 = alloca i32, align 4
  store i32 0, i32* %1, align 4
  %10 = call i32 (i8*, ...) @__isoc99_scanf(i8* getelementptr inbounds ([3 x i8], [3 x i8]* @.str, i64 0, i64 0), i32* %2)
  store i32 0, i32* %4, align 4
  br label %11

11:                                               ; preds = %45, %0
  %12 = load i32, i32* %4, align 4
  %13 = load i32, i32* %2, align 4
  %14 = icmp slt i32 %12, %13
  br i1 %14, label %15, label %48

15:                                               ; preds = %11
  %16 = call i32 (i8*, ...) @__isoc99_scanf(i8* getelementptr inbounds ([3 x i8], [3 x i8]* @.str, i64 0, i64 0), i32* %3)
  store double 0.000000e+00, double* %5, align 8
  store i32 1, i32* %6, align 4
  store i32 2, i32* %7, align 4
  store i32 0, i32* %9, align 4
  br label %17

17:                                               ; preds = %34, %15
  %18 = load i32, i32* %9, align 4
  %19 = load i32, i32* %3, align 4
  %20 = icmp slt i32 %18, %19
  br i1 %20, label %21, label %37

21:                                               ; preds = %17
  %22 = load double, double* %5, align 8
  %23 = load i32, i32* %7, align 4
  %24 = sitofp i32 %23 to double
  %25 = load i32, i32* %6, align 4
  %26 = sitofp i32 %25 to double
  %27 = fdiv double %24, %26
  %28 = fadd double %22, %27
  store double %28, double* %5, align 8
  %29 = load i32, i32* %7, align 4
  store i32 %29, i32* %8, align 4
  %30 = load i32, i32* %6, align 4
  %31 = load i32, i32* %7, align 4
  %32 = add nsw i32 %30, %31
  store i32 %32, i32* %7, align 4
  %33 = load i32, i32* %8, align 4
  store i32 %33, i32* %6, align 4
  br label %34

34:                                               ; preds = %21
  %35 = load i32, i32* %9, align 4
  %36 = add nsw i32 %35, 1
  store i32 %36, i32* %9, align 4
  br label %17

37:                                               ; preds = %17
  %38 = load i32, i32* %4, align 4
  %39 = icmp ne i32 %38, 0
  br i1 %39, label %40, label %42

40:                                               ; preds = %37
  %41 = call i32 (i8*, ...) @printf(i8* getelementptr inbounds ([2 x i8], [2 x i8]* @.str.1, i64 0, i64 0))
  br label %42

42:                                               ; preds = %40, %37
  %43 = load double, double* %5, align 8
  %44 = call i32 (i8*, ...) @printf(i8* getelementptr inbounds ([6 x i8], [6 x i8]* @.str.2, i64 0, i64 0), double %43)
  br label %45

45:                                               ; preds = %42
  %46 = load i32, i32* %4, align 4
  %47 = add nsw i32 %46, 1
  store i32 %47, i32* %4, align 4
  br label %11

48:                                               ; preds = %11
  ret i32 0
}

declare dso_local i32 @__isoc99_scanf(i8*, ...) #1

declare dso_local i32 @printf(i8*, ...) #1


!llvm.module.flags = !{!0}
!llvm.ident = !{!1}

!0 = !{i32 1, !"wchar_size", i32 4}
!1 = !{!"clang version 10.0.0-4ubuntu1 "}
